target datalayout = "e-m:e-p270:32:32-p271:32:32-p272:64:64-i64:64-i128:128-f80:128-n8:16:32:64-S128"
target triple = "x86_64-pc-linux-gnu"

%struct.strbuf = type { i64, i64, ptr }
%struct.bundle_header = type { i32, %struct.string_list, %struct.string_list, ptr, %struct.list_objects_filter_options }
%struct.string_list = type { ptr, i64, i64, i8, ptr }
%struct.list_objects_filter_options = type { %struct.strbuf, i32, i8, ptr, i64, i64, i32, i64, i64, ptr }

; Function Attrs: nounwind uwtable
define dso_local void @bundle_header_release(ptr noundef %0) #0 {
  %2 = alloca ptr, align 8
  store ptr %0, ptr %2, align 8, !tbaa !4
  %3 = load ptr, ptr %2, align 8, !tbaa !4
  %4 = getelementptr inbounds nuw %struct.bundle_header, ptr %3, i32 0, i32 1
  call void @string_list_clear(ptr noundef %4, i32 noundef 1)
  %5 = load ptr, ptr %2, align 8, !tbaa !4
  %6 = getelementptr inbounds nuw %struct.bundle_header, ptr %5, i32 0, i32 2
  call void @string_list_clear(ptr noundef %6, i32 noundef 1)
  %7 = load ptr, ptr %2, align 8, !tbaa !4
  %8 = getelementptr inbounds nuw %struct.bundle_header, ptr %7, i32 0, i32 4
  call void @list_objects_filter_release(ptr noundef %8)
  ret void
}

; Function Attrs: nounwind uwtable
define dso_local i32 @is_bundle(ptr noundef %0, i32 noundef %1) #0 {
  %3 = alloca i32, align 4
  %4 = alloca ptr, align 8
  %5 = alloca i32, align 4
  %6 = alloca %struct.bundle_header, align 8
  %7 = alloca i32, align 4
  %8 = alloca i32, align 4
  store ptr %0, ptr %4, align 8, !tbaa !11
  store i32 %1, ptr %5, align 4, !tbaa !9
  call void @llvm.lifetime.start.p0(i64 184, ptr %6) #9
  call void @llvm.memcpy.p0.p0.i64(ptr align 8 %6, ptr align 8 @__const.is_bundle.header, i64 184, i1 false)
  call void @llvm.lifetime.start.p0(i64 4, ptr %7) #9
  %9 = load ptr, ptr %4, align 8, !tbaa !11
  %10 = call i32 (ptr, i32, ...) @open64(ptr noundef %9, i32 noundef 0)
  store i32 %10, ptr %7, align 4, !tbaa !9
  %11 = load i32, ptr %7, align 4, !tbaa !9
  %12 = icmp slt i32 %11, 0
  br i1 %12, label %13, label %14

13:                                               ; preds = %2
  store i32 0, ptr %3, align 4
  store i32 1, ptr %8, align 4
  br label %33

14:                                               ; preds = %2
  %15 = load i32, ptr %7, align 4, !tbaa !9
  %16 = load i32, ptr %5, align 4, !tbaa !9
  %17 = icmp ne i32 %16, 0
  br i1 %17, label %18, label %19

18:                                               ; preds = %14
  br label %21

19:                                               ; preds = %14
  %20 = load ptr, ptr %4, align 8, !tbaa !11
  br label %21

21:                                               ; preds = %19, %18
  %22 = phi ptr [ null, %18 ], [ %20, %19 ]
  %23 = call i32 @read_bundle_header_fd(i32 noundef %15, ptr noundef %6, ptr noundef %22)
  store i32 %23, ptr %7, align 4, !tbaa !9
  %24 = load i32, ptr %7, align 4, !tbaa !9
  %25 = icmp sge i32 %24, 0
  br i1 %25, label %26, label %29

26:                                               ; preds = %21
  %27 = load i32, ptr %7, align 4, !tbaa !9
  %28 = call i32 @close(i32 noundef %27)
  br label %29

29:                                               ; preds = %26, %21
  call void @bundle_header_release(ptr noundef %6)
  %30 = load i32, ptr %7, align 4, !tbaa !9
  %31 = icmp sge i32 %30, 0
  %32 = zext i1 %31 to i32
  store i32 %32, ptr %3, align 4
  store i32 1, ptr %8, align 4
  br label %33

33:                                               ; preds = %29, %13
  call void @llvm.lifetime.end.p0(i64 4, ptr %7) #9
  call void @llvm.lifetime.end.p0(i64 184, ptr %6) #9
  %34 = load i32, ptr %3, align 4
  ret i32 %34
}