; Function Attrs: nounwind uwtable
define dso_local range(i32 0, 2) i32 @is_bundle(ptr noundef %0, i32 noundef %1) local_unnamed_addr #3 {
  %3 = alloca %struct.bundle_header, align 8
  call void @llvm.lifetime.start.p0(i64 184, ptr nonnull %3) #15
  call void @llvm.memcpy.p0.p0.i64(ptr noundef nonnull align 8 dereferenceable(184) %3, ptr noundef nonnull align 8 dereferenceable(184) @__const.is_bundle.header, i64 184, i1 false)
  %4 = tail call i32 (ptr, i32, ...) @open64(ptr noundef %0, i32 noundef 0) #15
  %5 = icmp slt i32 %4, 0
  br i1 %5, label %17, label %6

6:                                                ; preds = %2
  %.not = icmp eq i32 %1, 0
  %7 = select i1 %.not, ptr %0, ptr null
  %8 = call i32 @read_bundle_header_fd(i32 noundef %4, ptr noundef nonnull %3, ptr noundef %7)
  %9 = icmp sgt i32 %8, -1
  br i1 %9, label %10, label %12

10:                                               ; preds = %6
  %11 = call i32 @close(i32 noundef %8) #15
  br label %12

12:                                               ; preds = %10, %6
  %13 = getelementptr inbounds nuw i8, ptr %3, i64 8
  call void @string_list_clear(ptr noundef nonnull %13, i32 noundef 1) #15
  %14 = getelementptr inbounds nuw i8, ptr %3, i64 48
  call void @string_list_clear(ptr noundef nonnull %14, i32 noundef 1) #15
  %15 = getelementptr inbounds nuw i8, ptr %3, i64 96
  call void @list_objects_filter_release(ptr noundef nonnull %15) #15
  %16 = zext i1 %9 to i32
  br label %17

17:                                               ; preds = %2, %12
  %.0 = phi i32 [ %16, %12 ], [ 0, %2 ]
  call void @llvm.lifetime.end.p0(i64 184, ptr nonnull %3) #15
  ret i32 %.0
}